target datalayout = "e-m:e-p270:32:32-p271:32:32-p272:64:64-i64:64-i128:128-f80:128-n8:16:32:64-S128"
target triple = "x86_64-pc-linux-gnu"

@hf_gryphon_reserved = internal global i32 0, align 4
@hf_gryphon_addresp_flags = internal global i32 0, align 4
@hf_gryphon_addresp_flags_active = internal global i32 0, align 4
@hf_gryphon_addresp_blocks = internal global i32 0, align 4
@hf_gryphon_addresp_responses = internal global i32 0, align 4
@hf_gryphon_addresp_old_handle = internal global i32 0, align 4
@hf_gryphon_addresp_action = internal global i32 0, align 4
@hf_gryphon_addresp_action_period = internal global i32 0, align 4
@hf_gryphon_addresp_action_deact_on_event = internal global i32 0, align 4
@hf_gryphon_addresp_action_deact_after_period = internal global i32 0, align 4
@hf_gryphon_addresp_action_period_type = internal global i32 0, align 4
@ett_gryphon_flags = internal global i32 0, align 4
@ett_gryphon_cmd_filter_block = internal global i32 0, align 4
@ett_gryphon_cmd_response_block = internal global i32 0, align 4
@.str.1034 = private unnamed_addr constant [16 x i8] c"Filter block %d\00", align 1
@.str.1042 = private unnamed_addr constant [20 x i8] c"Period: %d messages\00", align 1
@.str.1043 = private unnamed_addr constant [24 x i8] c"Period: %d.%02d seconds\00", align 1
@.str.1044 = private unnamed_addr constant [11 x i8] c"(not used)\00", align 1
@.str.1045 = private unnamed_addr constant [18 x i8] c"Response block %d\00", align 1

; Function Attrs: null_pointer_is_valid sspstrong uwtable
define internal i32 @cmd_addresp(ptr noundef %0, i32 noundef %1, ptr noundef %2, ptr noundef %3) #0 {
  %5 = alloca ptr, align 8
  %6 = alloca i32, align 4
  %7 = alloca ptr, align 8
  %8 = alloca ptr, align 8
  %9 = alloca ptr, align 8
  %10 = alloca ptr, align 8
  %11 = alloca i32, align 4
  %12 = alloca i32, align 4
  %13 = alloca i32, align 4
  %14 = alloca i32, align 4
  %15 = alloca i32, align 4
  %16 = alloca i32, align 4
  %17 = alloca i32, align 4
  %18 = alloca i32, align 4
  %19 = alloca i32, align 4
  %20 = alloca ptr, align 8
  store ptr %0, ptr %5, align 8
  store i32 %1, ptr %6, align 4
  store ptr %2, ptr %7, align 8
  store ptr %3, ptr %8, align 8
  call void @llvm.lifetime.start.p0(i64 8, ptr %9) #7
  call void @llvm.lifetime.start.p0(i64 8, ptr %10) #7
  call void @llvm.lifetime.start.p0(i64 4, ptr %11) #7
  call void @llvm.lifetime.start.p0(i64 4, ptr %12) #7
  call void @llvm.lifetime.start.p0(i64 4, ptr %13) #7
  call void @llvm.lifetime.start.p0(i64 4, ptr %14) #7
  call void @llvm.lifetime.start.p0(i64 4, ptr %15) #7
  call void @llvm.lifetime.start.p0(i64 4, ptr %16) #7
  call void @llvm.lifetime.start.p0(i64 4, ptr %17) #7
  call void @llvm.lifetime.start.p0(i64 4, ptr %18) #7
  call void @llvm.lifetime.start.p0(i64 4, ptr %19) #7
  call void @llvm.lifetime.start.p0(i64 8, ptr %20) #7
  store i32 0, ptr %18, align 4
  %21 = load ptr, ptr %8, align 8
  %22 = load i32, ptr @hf_gryphon_addresp_flags, align 4
  %23 = load ptr, ptr %5, align 8
  %24 = load i32, ptr %6, align 4
  %25 = call ptr @proto_tree_add_item(ptr noundef %21, i32 noundef %22, ptr noundef %23, i32 noundef %24, i32 noundef 1, i32 noundef 0)
  store ptr %25, ptr %9, align 8
  %26 = load ptr, ptr %9, align 8
  %27 = load i32, ptr @ett_gryphon_flags, align 4
  %28 = call ptr @proto_item_add_subtree(ptr noundef %26, i32 noundef %27)
  store ptr %28, ptr %10, align 8
  %29 = load ptr, ptr %10, align 8
  %30 = load i32, ptr @hf_gryphon_addresp_flags_active, align 4
  %31 = load ptr, ptr %5, align 8
  %32 = load i32, ptr %6, align 4
  %33 = call ptr @proto_tree_add_item(ptr noundef %29, i32 noundef %30, ptr noundef %31, i32 noundef %32, i32 noundef 1, i32 noundef 0)
  %34 = load i32, ptr %6, align 4
  %35 = add i32 %34, 1
  store i32 %35, ptr %6, align 4
  %36 = load ptr, ptr %8, align 8
  %37 = load i32, ptr @hf_gryphon_addresp_blocks, align 4
  %38 = load ptr, ptr %5, align 8
  %39 = load i32, ptr %6, align 4
  %40 = call ptr @proto_tree_add_item_ret_uint(ptr noundef %36, i32 noundef %37, ptr noundef %38, i32 noundef %39, i32 noundef 1, i32 noundef 0, ptr noundef %11)
  %41 = load i32, ptr %6, align 4
  %42 = add i32 %41, 1
  store i32 %42, ptr %6, align 4
  %43 = load ptr, ptr %8, align 8
  %44 = load i32, ptr @hf_gryphon_addresp_responses, align 4
  %45 = load ptr, ptr %5, align 8
  %46 = load i32, ptr %6, align 4
  %47 = call ptr @proto_tree_add_item_ret_uint(ptr noundef %43, i32 noundef %44, ptr noundef %45, i32 noundef %46, i32 noundef 1, i32 noundef 0, ptr noundef %12)
  %48 = load i32, ptr %6, align 4
  %49 = add i32 %48, 1
  store i32 %49, ptr %6, align 4
  %50 = load ptr, ptr %8, align 8
  %51 = load i32, ptr @hf_gryphon_addresp_old_handle, align 4
  %52 = load ptr, ptr %5, align 8
  %53 = load i32, ptr %6, align 4
  %54 = call ptr @proto_tree_add_item(ptr noundef %50, i32 noundef %51, ptr noundef %52, i32 noundef %53, i32 noundef 1, i32 noundef 0)
  %55 = load i32, ptr %6, align 4
  %56 = add i32 %55, 1
  store i32 %56, ptr %6, align 4
  %57 = load ptr, ptr %5, align 8
  %58 = load i32, ptr %6, align 4
  %59 = call zeroext i8 @tvb_get_uint8(ptr noundef %57, i32 noundef %58)
  %60 = zext i8 %59 to i32
  store i32 %60, ptr %17, align 4
  %61 = load ptr, ptr %8, align 8
  %62 = load i32, ptr @hf_gryphon_addresp_action, align 4
  %63 = load ptr, ptr %5, align 8
  %64 = load i32, ptr %6, align 4
  %65 = call ptr @proto_tree_add_item(ptr noundef %61, i32 noundef %62, ptr noundef %63, i32 noundef %64, i32 noundef 1, i32 noundef 0)
  store ptr %65, ptr %9, align 8
  %66 = load ptr, ptr %9, align 8
  %67 = load i32, ptr @ett_gryphon_flags, align 4
  %68 = call ptr @proto_item_add_subtree(ptr noundef %66, i32 noundef %67)
  store ptr %68, ptr %10, align 8
  %69 = load ptr, ptr %5, align 8
  %70 = load i32, ptr %6, align 4
  %71 = add i32 %70, 2
  %72 = call zeroext i16 @tvb_get_ntohs(ptr noundef %69, i32 noundef %71)
  %73 = zext i16 %72 to i32
  store i32 %73, ptr %19, align 4
  %74 = load i32, ptr %19, align 4
  %75 = icmp ne i32 %74, 0
  br i1 %75, label %76, label %88

76:                                               ; preds = %4
  %77 = load i32, ptr %17, align 4
  %78 = and i32 %77, 16
  %79 = icmp ne i32 %78, 0
  br i1 %79, label %80, label %81

80:                                               ; preds = %76
  store i32 1, ptr %18, align 4
  br label %82

81:                                               ; preds = %76
  store i32 0, ptr %18, align 4
  br label %82

82:                                               ; preds = %81, %80
  %83 = load ptr, ptr %10, align 8
  %84 = load i32, ptr @hf_gryphon_addresp_action_period, align 4
  %85 = load ptr, ptr %5, align 8
  %86 = load i32, ptr %6, align 4
  %87 = call ptr @proto_tree_add_item(ptr noundef %83, i32 noundef %84, ptr noundef %85, i32 noundef %86, i32 noundef 1, i32 noundef 0)
  br label %88

88:                                               ; preds = %82, %4
  %89 = load ptr, ptr %10, align 8
  %90 = load i32, ptr @hf_gryphon_addresp_action_deact_on_event, align 4
  %91 = load ptr, ptr %5, align 8
  %92 = load i32, ptr %6, align 4
  %93 = call ptr @proto_tree_add_item(ptr noundef %89, i32 noundef %90, ptr noundef %91, i32 noundef %92, i32 noundef 1, i32 noundef 0)
  %94 = load ptr, ptr %10, align 8
  %95 = load i32, ptr @hf_gryphon_addresp_action_deact_after_period, align 4
  %96 = load ptr, ptr %5, align 8
  %97 = load i32, ptr %6, align 4
  %98 = call ptr @proto_tree_add_item(ptr noundef %94, i32 noundef %95, ptr noundef %96, i32 noundef %97, i32 noundef 1, i32 noundef 0)
  %99 = load i32, ptr %6, align 4
  %100 = add i32 %99, 1
  store i32 %100, ptr %6, align 4
  %101 = load ptr, ptr %8, align 8
  %102 = load i32, ptr @hf_gryphon_reserved, align 4
  %103 = load ptr, ptr %5, align 8
  %104 = load i32, ptr %6, align 4
  %105 = call ptr @proto_tree_add_item(ptr noundef %101, i32 noundef %102, ptr noundef %103, i32 noundef %104, i32 noundef 1, i32 noundef 0)
  %106 = load i32, ptr %6, align 4
  %107 = add i32 %106, 1
  store i32 %107, ptr %6, align 4
  %108 = load i32, ptr %19, align 4
  %109 = icmp ne i32 %108, 0
  br i1 %109, label %110, label %133

110:                                              ; preds = %88
  %111 = load i32, ptr %18, align 4
  %112 = icmp eq i32 %111, 1
  br i1 %112, label %113, label %121

113:                                              ; preds = %110
  %114 = load ptr, ptr %8, align 8
  %115 = load i32, ptr @hf_gryphon_addresp_action_period_type, align 4
  %116 = load ptr, ptr %5, align 8
  %117 = load i32, ptr %6, align 4
  %118 = load i32, ptr %19, align 4
  %119 = load i32, ptr %19, align 4
  %120 = call ptr (ptr, i32, ptr, i32, i32, i32, ptr, ...) @proto_tree_add_uint_format_value(ptr noundef %114, i32 noundef %115, ptr noundef %116, i32 noundef %117, i32 noundef 2, i32 noundef %118, ptr noundef @.str.1042, i32 noundef %119)
  br label %132

121:                                              ; preds = %110
  %122 = load ptr, ptr %8, align 8
  %123 = load i32, ptr @hf_gryphon_addresp_action_period_type, align 4
  %124 = load ptr, ptr %5, align 8
  %125 = load i32, ptr %6, align 4
  %126 = load i32, ptr %19, align 4
  %127 = load i32, ptr %19, align 4
  %128 = sdiv i32 %127, 100
  %129 = load i32, ptr %19, align 4
  %130 = srem i32 %129, 100
  %131 = call ptr (ptr, i32, ptr, i32, i32, i32, ptr, ...) @proto_tree_add_uint_format_value(ptr noundef %122, i32 noundef %123, ptr noundef %124, i32 noundef %125, i32 noundef 2, i32 noundef %126, ptr noundef @.str.1043, i32 noundef %128, i32 noundef %130)
  br label %132

132:                                              ; preds = %121, %113
  br label %140

133:                                              ; preds = %88
  %134 = load ptr, ptr %8, align 8
  %135 = load i32, ptr @hf_gryphon_addresp_action_period_type, align 4
  %136 = load ptr, ptr %5, align 8
  %137 = load i32, ptr %6, align 4
  %138 = load i32, ptr %19, align 4
  %139 = call ptr (ptr, i32, ptr, i32, i32, i32, ptr, ...) @proto_tree_add_uint_format_value(ptr noundef %134, i32 noundef %135, ptr noundef %136, i32 noundef %137, i32 noundef 2, i32 noundef %138, ptr noundef @.str.1044)
  br label %140

140:                                              ; preds = %133, %132
  %141 = load i32, ptr %6, align 4
  %142 = add i32 %141, 2
  store i32 %142, ptr %6, align 4
  store i32 1, ptr %13, align 4
  br label %143

143:                                              ; preds = %171, %140
  %144 = load i32, ptr %13, align 4
  %145 = load i32, ptr %11, align 4
  %146 = icmp ule i32 %144, %145
  br i1 %146, label %147, label %174

147:                                              ; preds = %143
  %148 = load ptr, ptr %5, align 8
  %149 = load i32, ptr %6, align 4
  %150 = add i32 %149, 2
  %151 = call zeroext i16 @tvb_get_ntohs(ptr noundef %148, i32 noundef %150)
  %152 = zext i16 %151 to i32
  %153 = add i32 %152, 8
  store i32 %153, ptr %15, align 4
  %154 = load i32, ptr %15, align 4
  %155 = add i32 %154, 3
  %156 = urem i32 %155, 4
  %157 = sub i32 3, %156
  store i32 %157, ptr %16, align 4
  %158 = load ptr, ptr %8, align 8
  %159 = load ptr, ptr %5, align 8
  %160 = load i32, ptr %6, align 4
  %161 = load i32, ptr %15, align 4
  %162 = load i32, ptr %16, align 4
  %163 = add i32 %161, %162
  %164 = load i32, ptr @ett_gryphon_cmd_filter_block, align 4
  %165 = load i32, ptr %13, align 4
  %166 = call ptr (ptr, ptr, i32, i32, i32, ptr, ptr, ...) @proto_tree_add_subtree_format(ptr noundef %158, ptr noundef %159, i32 noundef %160, i32 noundef %163, i32 noundef %164, ptr noundef null, ptr noundef @.str.1034, i32 noundef %165)
  store ptr %166, ptr %10, align 8
  %167 = load ptr, ptr %5, align 8
  %168 = load i32, ptr %6, align 4
  %169 = load ptr, ptr %10, align 8
  %170 = call i32 @filter_block(ptr noundef %167, i32 noundef %168, ptr noundef %169)
  store i32 %170, ptr %6, align 4
  br label %171

171:                                              ; preds = %147
  %172 = load i32, ptr %13, align 4
  %173 = add i32 %172, 1
  store i32 %173, ptr %13, align 4
  br label %143, !llvm.loop !16

174:                                              ; preds = %143
  store i32 1, ptr %13, align 4
  br label %175

175:                                              ; preds = %214, %174
  %176 = load i32, ptr %13, align 4
  %177 = load i32, ptr %12, align 4
  %178 = icmp ule i32 %176, %177
  br i1 %178, label %179, label %217

179:                                              ; preds = %175
  %180 = load ptr, ptr %5, align 8
  %181 = load i32, ptr %6, align 4
  %182 = add i32 %181, 4
  %183 = call zeroext i16 @tvb_get_ntohs(ptr noundef %180, i32 noundef %182)
  %184 = zext i16 %183 to i32
  %185 = add i32 %184, 8
  store i32 %185, ptr %14, align 4
  %186 = load i32, ptr %14, align 4
  %187 = add i32 %186, 3
  %188 = urem i32 %187, 4
  %189 = sub i32 3, %188
  store i32 %189, ptr %16, align 4
  %190 = load ptr, ptr %8, align 8
  %191 = load ptr, ptr %5, align 8
  %192 = load i32, ptr %6, align 4
  %193 = load i32, ptr %14, align 4
  %194 = load i32, ptr %16, align 4
  %195 = add i32 %193, %194
  %196 = load i32, ptr @ett_gryphon_cmd_response_block, align 4
  %197 = load i32, ptr %13, align 4
  %198 = call ptr (ptr, ptr, i32, i32, i32, ptr, ptr, ...) @proto_tree_add_subtree_format(ptr noundef %190, ptr noundef %191, i32 noundef %192, i32 noundef %195, i32 noundef %196, ptr noundef null, ptr noundef @.str.1045, i32 noundef %197)
  store ptr %198, ptr %10, align 8
  %199 = load ptr, ptr %5, align 8
  %200 = load i32, ptr %6, align 4
  %201 = load i32, ptr %14, align 4
  %202 = load i32, ptr %16, align 4
  %203 = add i32 %201, %202
  %204 = call ptr @tvb_new_subset_length(ptr noundef %199, i32 noundef %200, i32 noundef %203)
  store ptr %204, ptr %20, align 8
  %205 = load ptr, ptr %20, align 8
  %206 = load ptr, ptr %7, align 8
  %207 = load ptr, ptr %10, align 8
  %208 = call i32 @dissect_gryphon_message(ptr noundef %205, ptr noundef %206, ptr noundef %207, i1 noundef zeroext true)
  %209 = load i32, ptr %14, align 4
  %210 = load i32, ptr %16, align 4
  %211 = add i32 %209, %210
  %212 = load i32, ptr %6, align 4
  %213 = add i32 %212, %211
  store i32 %213, ptr %6, align 4
  br label %214

214:                                              ; preds = %179
  %215 = load i32, ptr %13, align 4
  %216 = add i32 %215, 1
  store i32 %216, ptr %13, align 4
  br label %175, !llvm.loop !17

217:                                              ; preds = %175
  %218 = load i32, ptr %6, align 4
  call void @llvm.lifetime.end.p0(i64 8, ptr %20) #7
  call void @llvm.lifetime.end.p0(i64 4, ptr %19) #7
  call void @llvm.lifetime.end.p0(i64 4, ptr %18) #7
  call void @llvm.lifetime.end.p0(i64 4, ptr %17) #7
  call void @llvm.lifetime.end.p0(i64 4, ptr %16) #7
  call void @llvm.lifetime.end.p0(i64 4, ptr %15) #7
  call void @llvm.lifetime.end.p0(i64 4, ptr %14) #7
  call void @llvm.lifetime.end.p0(i64 4, ptr %13) #7
  call void @llvm.lifetime.end.p0(i64 4, ptr %12) #7
  call void @llvm.lifetime.end.p0(i64 4, ptr %11) #7
  call void @llvm.lifetime.end.p0(i64 8, ptr %10) #7
  call void @llvm.lifetime.end.p0(i64 8, ptr %9) #7
  ret i32 %218
}